; Function Attrs: mustprogress nofree norecurse nosync nounwind willreturn memory(read, argmem: readwrite, inaccessiblemem: none) uwtable
define range(i32 0, -2147483648) i32 @ff_wma_get_large_val(ptr noundef captures(none) %0) local_unnamed_addr #4 {
  %2 = getelementptr inbounds nuw i8, ptr %0, i64 16
  %3 = load i32, ptr %2, align 8, !tbaa !85
  %4 = load ptr, ptr %0, align 8, !tbaa !86
  %5 = lshr i32 %3, 3
  %6 = zext nneg i32 %5 to i64
  %7 = getelementptr inbounds nuw i8, ptr %4, i64 %6
  %8 = load i8, ptr %7, align 1, !tbaa !52
  %9 = getelementptr inbounds nuw i8, ptr %0, i64 24
  %10 = load i32, ptr %9, align 8, !tbaa !87
  %11 = icmp slt i32 %3, %10
  %12 = zext i1 %11 to i32
  %spec.select.i = add i32 %3, %12
  %13 = zext i8 %8 to i32
  %14 = and i32 %3, 7
  store i32 %spec.select.i, ptr %2, align 8, !tbaa !85
  %15 = lshr exact i32 128, %14
  %16 = and i32 %15, %13
  %.not = icmp eq i32 %16, 0
  br i1 %.not, label %select.unfold, label %17

17:                                               ; preds = %1
  %18 = lshr i32 %spec.select.i, 3
  %19 = zext nneg i32 %18 to i64
  %20 = getelementptr inbounds nuw i8, ptr %4, i64 %19
  %21 = load i8, ptr %20, align 1, !tbaa !52
  %22 = icmp slt i32 %spec.select.i, %10
  %23 = zext i1 %22 to i32
  %spec.select.i9 = add i32 %spec.select.i, %23
  %24 = zext i8 %21 to i32
  %25 = and i32 %spec.select.i, 7
  store i32 %spec.select.i9, ptr %2, align 8, !tbaa !85
  %26 = lshr exact i32 128, %25
  %27 = and i32 %26, %24
  %.not7 = icmp eq i32 %27, 0
  br i1 %.not7, label %select.unfold, label %28

28:                                               ; preds = %17
  %29 = lshr i32 %spec.select.i9, 3
  %30 = zext nneg i32 %29 to i64
  %31 = getelementptr inbounds nuw i8, ptr %4, i64 %30
  %32 = load i8, ptr %31, align 1, !tbaa !52
  %33 = icmp slt i32 %spec.select.i9, %10
  %34 = zext i1 %33 to i32
  %spec.select.i10 = add i32 %spec.select.i9, %34
  %35 = zext i8 %32 to i32
  %36 = and i32 %spec.select.i9, 7
  store i32 %spec.select.i10, ptr %2, align 8, !tbaa !85
  %37 = lshr exact i32 128, %36
  %38 = and i32 %37, %35
  %.not8 = icmp eq i32 %38, 0
  %spec.select = select i1 %.not8, i32 24, i32 31
  br label %select.unfold

select.unfold:                                    ; preds = %28, %17, %1
  %39 = phi i32 [ %spec.select.i9, %17 ], [ %spec.select.i, %1 ], [ %spec.select.i10, %28 ]
  %.0 = phi i32 [ 16, %17 ], [ 8, %1 ], [ %spec.select, %28 ]
  %40 = icmp samesign ult i32 %.0, 26
  %41 = lshr i32 %39, 3
  %42 = zext nneg i32 %41 to i64
  %43 = getelementptr inbounds nuw i8, ptr %4, i64 %42
  %44 = load i32, ptr %43, align 1, !tbaa !52
  %45 = tail call i32 @llvm.bswap.i32(i32 %44)
  %46 = and i32 %39, 7
  %47 = shl i32 %45, %46
  br i1 %40, label %48, label %53

48:                                               ; preds = %select.unfold
  %49 = sub nuw nsw i32 32, %.0
  %50 = lshr i32 %47, %49
  %51 = add i32 %39, %.0
  %52 = tail call i32 @llvm.umin.i32(i32 %10, i32 %51)
  br label %get_bits_long.exit

53:                                               ; preds = %select.unfold
  %54 = lshr i32 %47, 16
  %55 = add i32 %39, 16
  %56 = tail call i32 @llvm.umin.i32(i32 %10, i32 %55)
  store i32 %56, ptr %2, align 8, !tbaa !85
  %57 = add nsw i32 %.0, -16
  %58 = shl nuw nsw i32 %54, %57
  %59 = lshr i32 %56, 3
  %60 = zext nneg i32 %59 to i64
  %61 = getelementptr inbounds nuw i8, ptr %4, i64 %60
  %62 = load i32, ptr %61, align 1, !tbaa !52
  %63 = tail call i32 @llvm.bswap.i32(i32 %62)
  %64 = and i32 %56, 7
  %65 = shl i32 %63, %64
  %66 = sub nuw nsw i32 48, %.0
  %67 = lshr i32 %65, %66
  %68 = add i32 %56, %57
  %69 = tail call i32 @llvm.umin.i32(i32 %10, i32 %68)
  %70 = or i32 %67, %58
  br label %get_bits_long.exit

get_bits_long.exit:                               ; preds = %48, %53
  %.sink = phi i32 [ %52, %48 ], [ %69, %53 ]
  %.0.i = phi i32 [ %50, %48 ], [ %70, %53 ]
  store i32 %.sink, ptr %2, align 8, !tbaa !85
  ret i32 %.0.i
}